; Function Attrs: nounwind uwtable
define dso_local range(i32 -1, 1) i32 @php_lint_script(ptr noundef %0) local_unnamed_addr #2 {
  %2 = alloca [1 x %struct.__jmp_buf_tag], align 16
  %3 = load ptr, ptr getelementptr inbounds nuw (i8, ptr @executor_globals, i64 416), align 8, !tbaa !111
  call void @llvm.lifetime.start.p0(i64 200, ptr nonnull %2) #28
  store ptr %2, ptr getelementptr inbounds nuw (i8, ptr @executor_globals, i64 416), align 8, !tbaa !111
  %4 = call i32 @__sigsetjmp(ptr noundef nonnull %2, i32 noundef 0) #30
  %5 = icmp eq i32 %4, 0
  br i1 %5, label %6, label %10

6:                                                ; preds = %1
  %7 = load ptr, ptr @zend_compile_file, align 8, !tbaa !148
  %8 = call ptr %7(ptr noundef %0, i32 noundef 2) #28
  %.not = icmp eq ptr %8, null
  br i1 %.not, label %10, label %9

9:                                                ; preds = %6
  call void @destroy_op_array(ptr noundef nonnull %8) #28
  call void @_efree(ptr noundef nonnull %8) #28
  br label %10

10:                                               ; preds = %6, %9, %1
  %.0 = phi i32 [ 0, %9 ], [ -1, %6 ], [ -1, %1 ]
  store ptr %3, ptr getelementptr inbounds nuw (i8, ptr @executor_globals, i64 416), align 8, !tbaa !111
  call void @llvm.lifetime.end.p0(i64 200, ptr nonnull %2) #28
  %11 = load ptr, ptr getelementptr inbounds nuw (i8, ptr @executor_globals, i64 960), align 8, !tbaa !93
  %.not7 = icmp eq ptr %11, null
  br i1 %.not7, label %14, label %12

12:                                               ; preds = %10
  %13 = call i32 @zend_exception_error(ptr noundef nonnull %11, i32 noundef 1) #28
  br label %14

14:                                               ; preds = %12, %10
  ret i32 %.0
}